target datalayout = "e-m:e-p270:32:32-p271:32:32-p272:64:64-i64:64-i128:128-f80:128-n8:16:32:64-S128"
target triple = "x86_64-pc-linux-gnu"

%struct.Node = type { i32 }
%struct.Var = type { %struct.Expr, i32, i16, i32, i32, i32, ptr, i32, i32, i32, i16, i32 }
%struct.Expr = type { i32 }
%struct.ReturningExpr = type { %struct.Expr, i32, i8, ptr }

; Function Attrs: nounwind uwtable
define internal zeroext i1 @contain_vars_returning_old_or_new_walker(ptr noundef %0, ptr noundef %1) #0 {
  %3 = alloca i1, align 1
  %4 = alloca ptr, align 8
  %5 = alloca ptr, align 8
  store ptr %0, ptr %4, align 8
  store ptr %1, ptr %5, align 8
  %6 = load ptr, ptr %4, align 8
  %7 = icmp eq ptr %6, null
  br i1 %7, label %8, label %9

8:                                                ; preds = %2
  store i1 false, ptr %3, align 1
  br label %42

9:                                                ; preds = %2
  %10 = load ptr, ptr %4, align 8
  %11 = getelementptr inbounds nuw %struct.Node, ptr %10, i32 0, i32 0
  %12 = load i32, ptr %11, align 4
  %13 = icmp eq i32 %12, 6
  br i1 %13, label %14, label %26

14:                                               ; preds = %9
  %15 = load ptr, ptr %4, align 8
  %16 = getelementptr inbounds nuw %struct.Var, ptr %15, i32 0, i32 7
  %17 = load i32, ptr %16, align 8
  %18 = icmp eq i32 %17, 0
  br i1 %18, label %19, label %25

19:                                               ; preds = %14
  %20 = load ptr, ptr %4, align 8
  %21 = getelementptr inbounds nuw %struct.Var, ptr %20, i32 0, i32 8
  %22 = load i32, ptr %21, align 4
  %23 = icmp ne i32 %22, 0
  br i1 %23, label %24, label %25

24:                                               ; preds = %19
  store i1 true, ptr %3, align 1
  br label %42

25:                                               ; preds = %19, %14
  store i1 false, ptr %3, align 1
  br label %42

26:                                               ; preds = %9
  %27 = load ptr, ptr %4, align 8
  %28 = getelementptr inbounds nuw %struct.Node, ptr %27, i32 0, i32 0
  %29 = load i32, ptr %28, align 4
  %30 = icmp eq i32 %29, 61
  br i1 %30, label %31, label %38

31:                                               ; preds = %26
  %32 = load ptr, ptr %4, align 8
  %33 = getelementptr inbounds nuw %struct.ReturningExpr, ptr %32, i32 0, i32 1
  %34 = load i32, ptr %33, align 4
  %35 = icmp eq i32 %34, 0
  br i1 %35, label %36, label %37

36:                                               ; preds = %31
  store i1 true, ptr %3, align 1
  br label %42

37:                                               ; preds = %31
  store i1 false, ptr %3, align 1
  br label %42

38:                                               ; preds = %26
  %39 = load ptr, ptr %4, align 8
  %40 = load ptr, ptr %5, align 8
  %41 = call zeroext i1 @expression_tree_walker_impl(ptr noundef %39, ptr noundef @contain_vars_returning_old_or_new_walker, ptr noundef %40)
  store i1 %41, ptr %3, align 1
  br label %42

42:                                               ; preds = %38, %37, %36, %25, %24, %8
  %43 = load i1, ptr %3, align 1
  ret i1 %43
}