; Function Attrs: nounwind uwtable
define internal zeroext i1 @contain_vars_returning_old_or_new_walker(ptr noundef %0, ptr noundef %1) #0 {
  %3 = icmp eq ptr %0, null
  br i1 %3, label %20, label %4

4:                                                ; preds = %2
  %5 = load i32, ptr %0, align 4
  switch i32 %5, label %18 [
    i32 6, label %6
    i32 61, label %14
  ]

6:                                                ; preds = %4
  %7 = getelementptr inbounds nuw i8, ptr %0, i64 32
  %8 = load i32, ptr %7, align 8
  %9 = icmp eq i32 %8, 0
  br i1 %9, label %10, label %13

10:                                               ; preds = %6
  %11 = getelementptr inbounds nuw i8, ptr %0, i64 36
  %12 = load i32, ptr %11, align 4
  %.not = icmp eq i32 %12, 0
  br i1 %.not, label %13, label %20

13:                                               ; preds = %10, %6
  br label %20

14:                                               ; preds = %4
  %15 = getelementptr inbounds nuw i8, ptr %0, i64 4
  %16 = load i32, ptr %15, align 4
  %17 = icmp eq i32 %16, 0
  br label %20

18:                                               ; preds = %4
  %19 = tail call zeroext i1 @expression_tree_walker_impl(ptr noundef nonnull %0, ptr noundef nonnull @contain_vars_returning_old_or_new_walker, ptr noundef %1) #6
  br label %20

20:                                               ; preds = %14, %10, %2, %18, %13
  %.0 = phi i1 [ false, %13 ], [ %19, %18 ], [ false, %2 ], [ true, %10 ], [ %17, %14 ]
  ret i1 %.0
}